target datalayout = "e-m:e-p270:32:32-p271:32:32-p272:64:64-i64:64-i128:128-f80:128-n8:16:32:64-S128"
target triple = "x86_64-pc-linux-gnu"

%"class.std::__cxx11::basic_string" = type { %"struct.std::__cxx11::basic_string<char>::_Alloc_hider", i64, %union.anon }
%"struct.std::__cxx11::basic_string<char>::_Alloc_hider" = type { ptr }
%union.anon = type { i64, [8 x i8] }
%"class.std::vector.10" = type { %"struct.std::_Vector_base.11" }
%"struct.std::_Vector_base.11" = type { %"struct.std::_Vector_base<gmx::BasicVector<double>, std::allocator<gmx::BasicVector<double>>>::_Vector_impl" }
%"struct.std::_Vector_base<gmx::BasicVector<double>, std::allocator<gmx::BasicVector<double>>>::_Vector_impl" = type { %"struct.std::_Vector_base<gmx::BasicVector<double>, std::allocator<gmx::BasicVector<double>>>::_Vector_impl_data" }
%"struct.std::_Vector_base<gmx::BasicVector<double>, std::allocator<gmx::BasicVector<double>>>::_Vector_impl_data" = type { ptr, ptr, ptr }
%"class.std::vector.15" = type { %"struct.std::_Vector_base.16" }
%"struct.std::_Vector_base.16" = type { %"struct.std::_Vector_base<double, std::allocator<double>>::_Vector_impl" }
%"struct.std::_Vector_base<double, std::allocator<double>>::_Vector_impl" = type { %"struct.std::_Vector_base<double, std::allocator<double>>::_Vector_impl_data" }
%"struct.std::_Vector_base<double, std::allocator<double>>::_Vector_impl_data" = type { ptr, ptr, ptr }
%struct.t_pull_coord = type { i32, %"class.std::__cxx11::basic_string", i32, %"class.std::__cxx11::basic_string", double, i32, %"struct.std::array", %"class.gmx::BasicVector.21", %"class.gmx::BasicVector.22", %"class.gmx::BasicVector.22", i8, float, float, float, float, i32 }
%"struct.std::array" = type { [6 x i32] }
%"class.gmx::BasicVector.21" = type { [3 x i32] }
%"class.gmx::BasicVector.22" = type { [3 x float] }
%struct.pull_coord_work_t = type { %struct.t_pull_coord, %"class.std::unique_ptr.23", double, %struct.PullCoordSpatialData, double, i8, %"class.gmx::PullCoordExpressionParser", %"class.std::vector.15" }
%"class.std::unique_ptr.23" = type { %"struct.std::__uniq_ptr_data.24" }
%"struct.std::__uniq_ptr_data.24" = type { %"class.std::__uniq_ptr_impl.25" }
%"class.std::__uniq_ptr_impl.25" = type { %"class.std::tuple.26" }
%"class.std::tuple.26" = type { %"struct.std::_Tuple_impl.27" }
%"struct.std::_Tuple_impl.27" = type { %"struct.std::_Head_base.30" }
%"struct.std::_Head_base.30" = type { ptr }
%struct.PullCoordSpatialData = type { [3 x double], [3 x double], [3 x double], [3 x double], double, [3 x double], double, [3 x double], [3 x double], double }
%"class.gmx::PullCoordExpressionParser" = type { %"class.std::__cxx11::basic_string", %"class.std::vector.15", %"class.std::unique_ptr.31" }
%"class.std::unique_ptr.31" = type { %"struct.std::__uniq_ptr_data.32" }
%"struct.std::__uniq_ptr_data.32" = type { %"class.std::__uniq_ptr_impl.33" }
%"class.std::__uniq_ptr_impl.33" = type { %"class.std::tuple.34" }
%"class.std::tuple.34" = type { %"struct.std::_Tuple_impl.35" }
%"struct.std::_Tuple_impl.35" = type { %"struct.std::_Head_base.38" }
%"struct.std::_Head_base.38" = type { ptr }
%struct.pull_t = type <{ %struct.pull_params_t, i8, i8, i8, i8, i32, i32, i8, [3 x i8], i32, i8, [3 x i8], %"class.std::vector.49", %"class.std::vector.54", i8, [7 x i8], %"class.std::vector.59", %struct.pull_comm_t, ptr, ptr, i8, i8, [6 x i8], ptr, i32, i32, i32, [4 x i8] }>
%struct.pull_params_t = type { i32, i32, float, float, i8, i8, i8, i8, i32, i32, i8, i8, %"class.std::vector.39", %"class.std::vector.44" }
%"class.std::vector.39" = type { %"struct.std::_Vector_base.40" }
%"struct.std::_Vector_base.40" = type { %"struct.std::_Vector_base<t_pull_group, std::allocator<t_pull_group>>::_Vector_impl" }
%"struct.std::_Vector_base<t_pull_group, std::allocator<t_pull_group>>::_Vector_impl" = type { %"struct.std::_Vector_base<t_pull_group, std::allocator<t_pull_group>>::_Vector_impl_data" }
%"struct.std::_Vector_base<t_pull_group, std::allocator<t_pull_group>>::_Vector_impl_data" = type { ptr, ptr, ptr }
%"class.std::vector.44" = type { %"struct.std::_Vector_base.45" }
%"struct.std::_Vector_base.45" = type { %"struct.std::_Vector_base<t_pull_coord, std::allocator<t_pull_coord>>::_Vector_impl" }
%"struct.std::_Vector_base<t_pull_coord, std::allocator<t_pull_coord>>::_Vector_impl" = type { %"struct.std::_Vector_base<t_pull_coord, std::allocator<t_pull_coord>>::_Vector_impl_data" }
%"struct.std::_Vector_base<t_pull_coord, std::allocator<t_pull_coord>>::_Vector_impl_data" = type { ptr, ptr, ptr }
%"class.std::vector.49" = type { %"struct.std::_Vector_base.50" }
%"struct.std::_Vector_base.50" = type { %"struct.std::_Vector_base<pull_group_work_t, std::allocator<pull_group_work_t>>::_Vector_impl" }
%"struct.std::_Vector_base<pull_group_work_t, std::allocator<pull_group_work_t>>::_Vector_impl" = type { %"struct.std::_Vector_base<pull_group_work_t, std::allocator<pull_group_work_t>>::_Vector_impl_data" }
%"struct.std::_Vector_base<pull_group_work_t, std::allocator<pull_group_work_t>>::_Vector_impl_data" = type { ptr, ptr, ptr }
%"class.std::vector.54" = type { %"struct.std::_Vector_base.55" }
%"struct.std::_Vector_base.55" = type { %"struct.std::_Vector_base<pull_coord_work_t, std::allocator<pull_coord_work_t>>::_Vector_impl" }
%"struct.std::_Vector_base<pull_coord_work_t, std::allocator<pull_coord_work_t>>::_Vector_impl" = type { %"struct.std::_Vector_base<pull_coord_work_t, std::allocator<pull_coord_work_t>>::_Vector_impl_data" }
%"struct.std::_Vector_base<pull_coord_work_t, std::allocator<pull_coord_work_t>>::_Vector_impl_data" = type { ptr, ptr, ptr }
%"class.std::vector.59" = type { %"struct.std::_Vector_base.60" }
%"struct.std::_Vector_base.60" = type { %"struct.std::_Vector_base<ComSums, std::allocator<ComSums>>::_Vector_impl" }
%"struct.std::_Vector_base<ComSums, std::allocator<ComSums>>::_Vector_impl" = type { %"struct.std::_Vector_base<ComSums, std::allocator<ComSums>>::_Vector_impl_data" }
%"struct.std::_Vector_base<ComSums, std::allocator<ComSums>>::_Vector_impl_data" = type { ptr, ptr, ptr }
%struct.pull_comm_t = type { i8, i8, ptr, i32, i8, i64, i64, %"class.std::vector.64", %"class.std::vector.10", %"class.std::vector.15" }
%"class.std::vector.64" = type { %"struct.std::_Vector_base.65" }
%"struct.std::_Vector_base.65" = type { %"struct.std::_Vector_base<gmx::BasicVector<float>, std::allocator<gmx::BasicVector<float>>>::_Vector_impl" }
%"struct.std::_Vector_base<gmx::BasicVector<float>, std::allocator<gmx::BasicVector<float>>>::_Vector_impl" = type { %"struct.std::_Vector_base<gmx::BasicVector<float>, std::allocator<gmx::BasicVector<float>>>::_Vector_impl_data" }
%"struct.std::_Vector_base<gmx::BasicVector<float>, std::allocator<gmx::BasicVector<float>>>::_Vector_impl_data" = type { ptr, ptr, ptr }
%class.anon.86 = type { i8 }

@.str.9 = private unnamed_addr constant [122 x i8] c"generated/home/dtcxzyw/WorkSpace/Projects/compilers/llvm-opt-benchmark/bench/gromacs/gromacs/src/gromacs/pulling/pull.cpp\00", align 1
@.str.29 = private unnamed_addr constant [49 x i8] c"pcrd.params_.eType == PullingAlgorithm::External\00", align 1
@.str.30 = private unnamed_addr constant [79 x i8] c"The pull force can only be set externally on pull coordinates of external type\00", align 1
@"__PRETTY_FUNCTION__._ZZ31apply_external_pull_coord_forceP6pull_tidENK3$_0clEv" = private unnamed_addr constant [111 x i8] c"auto apply_external_pull_coord_force(pull_t *, const int, const double)::(anonymous class)::operator()() const\00", align 1

; Function Attrs: inlinehint mustprogress uwtable
define internal void @"_ZZ31apply_external_pull_coord_forceP6pull_tidENK3$_0clEv"(ptr noundef nonnull align 1 dereferenceable(1) %0) #8 align 2 {
  %2 = alloca ptr, align 8
  store ptr %0, ptr %2, align 8, !tbaa !121
  call void @_ZN3gmx8internal13assertHandlerEPKcS2_S2_S2_i(ptr noundef @.str.29, ptr noundef @.str.30, ptr noundef @"__PRETTY_FUNCTION__._ZZ31apply_external_pull_coord_forceP6pull_tidENK3$_0clEv", ptr noundef @.str.9, i32 noundef 1565) #19
  unreachable
}

; Function Attrs: mustprogress nounwind uwtable
define linkonce_odr noundef nonnull align 8 dereferenceable(488) ptr @_ZNSt6vectorI17pull_coord_work_tSaIS0_EEixEm(ptr noundef nonnull align 8 dereferenceable(24) %0, i64 noundef %1) #5 comdat align 2 {
  %3 = alloca ptr, align 8
  %4 = alloca i64, align 8
  store ptr %0, ptr %3, align 8, !tbaa !239
  store i64 %1, ptr %4, align 8, !tbaa !19
  %5 = load ptr, ptr %3, align 8
  %6 = getelementptr inbounds nuw %"struct.std::_Vector_base.55", ptr %5, i32 0, i32 0
  %7 = getelementptr inbounds nuw %"struct.std::_Vector_base<pull_coord_work_t, std::allocator<pull_coord_work_t>>::_Vector_impl_data", ptr %6, i32 0, i32 0
  %8 = load ptr, ptr %7, align 8, !tbaa !241
  %9 = load i64, ptr %4, align 8, !tbaa !19
  %10 = getelementptr inbounds nuw %struct.pull_coord_work_t, ptr %8, i64 %9
  ret ptr %10
}

; Function Attrs: mustprogress uwtable
define void @_Z31apply_external_pull_coord_forceP6pull_tid(ptr noundef %0, i32 noundef %1, double noundef %2) #6 {
  %4 = alloca ptr, align 8
  %5 = alloca i32, align 4
  %6 = alloca double, align 8
  %7 = alloca ptr, align 8
  %8 = alloca %class.anon.86, align 1
  store ptr %0, ptr %4, align 8, !tbaa !214
  store i32 %1, ptr %5, align 4, !tbaa !38
  store double %2, ptr %6, align 8, !tbaa !93
  %9 = load ptr, ptr %4, align 8, !tbaa !214
  %10 = getelementptr inbounds nuw %struct.pull_t, ptr %9, i32 0, i32 17
  %11 = getelementptr inbounds nuw %struct.pull_comm_t, ptr %10, i32 0, i32 1
  %12 = load i8, ptr %11, align 1, !tbaa !357, !range !40, !noundef !41
  %13 = trunc i8 %12 to i1
  br i1 %13, label %14, label %33

14:                                               ; preds = %3
  call void @llvm.lifetime.start.p0(i64 8, ptr %7) #3
  %15 = load ptr, ptr %4, align 8, !tbaa !214
  %16 = getelementptr inbounds nuw %struct.pull_t, ptr %15, i32 0, i32 13
  %17 = load i32, ptr %5, align 4, !tbaa !38
  %18 = sext i32 %17 to i64
  %19 = call noundef nonnull align 8 dereferenceable(488) ptr @_ZNSt6vectorI17pull_coord_work_tSaIS0_EEixEm(ptr noundef nonnull align 8 dereferenceable(24) %16, i64 noundef %18) #3
  store ptr %19, ptr %7, align 8, !tbaa !199
  %20 = load ptr, ptr %7, align 8, !tbaa !199
  %21 = getelementptr inbounds nuw %struct.pull_coord_work_t, ptr %20, i32 0, i32 0
  %22 = getelementptr inbounds nuw %struct.t_pull_coord, ptr %21, i32 0, i32 0
  %23 = load i32, ptr %22, align 8, !tbaa !243
  %24 = icmp eq i32 %23, 5
  call void @llvm.lifetime.start.p0(i64 1, ptr %8) #3
  br i1 %24, label %25, label %26

25:                                               ; preds = %14
  br label %27

26:                                               ; preds = %14
  call void @"_ZZ31apply_external_pull_coord_forceP6pull_tidENK3$_0clEv"(ptr noundef nonnull align 1 dereferenceable(1) %8)
  br label %27

27:                                               ; preds = %26, %25
  call void @llvm.lifetime.end.p0(i64 1, ptr %8) #3
  %28 = load double, ptr %6, align 8, !tbaa !93
  %29 = load ptr, ptr %7, align 8, !tbaa !199
  %30 = getelementptr inbounds nuw %struct.pull_coord_work_t, ptr %29, i32 0, i32 4
  %31 = load double, ptr %30, align 8, !tbaa !342
  %32 = fadd double %31, %28
  store double %32, ptr %30, align 8, !tbaa !342
  call void @llvm.lifetime.end.p0(i64 8, ptr %7) #3
  br label %33

33:                                               ; preds = %27, %3
  %34 = load ptr, ptr %4, align 8, !tbaa !214
  %35 = getelementptr inbounds nuw %struct.pull_t, ptr %34, i32 0, i32 26
  %36 = load i32, ptr %35, align 8, !tbaa !358
  %37 = add nsw i32 %36, -1
  store i32 %37, ptr %35, align 8, !tbaa !358
  ret void
}