; Function Attrs: mustprogress uwtable
define void @_Z31apply_external_pull_coord_forceP6pull_tid(ptr noundef captures(none) %0, i32 noundef %1, double noundef %2) local_unnamed_addr #4 {
  %4 = getelementptr inbounds nuw i8, ptr %0, i64 185
  %5 = load i8, ptr %4, align 1, !tbaa !164, !range !73, !noundef !74
  %6 = trunc nuw i8 %5 to i1
  br i1 %6, label %7, label %19

7:                                                ; preds = %3
  %8 = getelementptr inbounds nuw i8, ptr %0, i64 128
  %9 = sext i32 %1 to i64
  %10 = load ptr, ptr %8, align 8, !tbaa !86
  %11 = getelementptr inbounds nuw %struct.pull_coord_work_t, ptr %10, i64 %9
  %12 = load i32, ptr %11, align 8, !tbaa !109
  %13 = icmp eq i32 %12, 5
  br i1 %13, label %15, label %14

14:                                               ; preds = %7
  tail call void @_ZN3gmx8internal13assertHandlerEPKcS2_S2_S2_i(ptr noundef nonnull @.str.29, ptr noundef nonnull @.str.30, ptr noundef nonnull @"__PRETTY_FUNCTION__._ZZ31apply_external_pull_coord_forceP6pull_tidENK3$_0clEv", ptr noundef nonnull @.str.9, i32 noundef 1565) #29
  unreachable

15:                                               ; preds = %7
  %16 = getelementptr inbounds nuw i8, ptr %11, i64 384
  %17 = load double, ptr %16, align 8, !tbaa !160
  %18 = fadd double %2, %17
  store double %18, ptr %16, align 8, !tbaa !160
  br label %19

19:                                               ; preds = %15, %3
  %20 = getelementptr inbounds nuw i8, ptr %0, i64 336
  %21 = load i32, ptr %20, align 8, !tbaa !165
  %22 = add nsw i32 %21, -1
  store i32 %22, ptr %20, align 8, !tbaa !165
  ret void
}